Certificate:
    Data:
        Version: 3 (0x2)
        Serial Number:
            b4:14:ba:e6:bc:e3:9d:e4:88:08:5b:a1:f5:3a:19:bd
        Signature Algorithm: sha256WithRSAEncryption
        Issuer: CN=Easy-RSA CA
        Validity
            Not Before: Apr 29 13:17:33 2025 GMT
            Not After : Apr 27 13:17:33 2035 GMT
        Subject: CN=client
        Subject Public Key Info:
            Public Key Algorithm: rsaEncryption
                Public-Key: (2048 bit)
                Modulus:
                    00:a3:55:bf:48:70:94:87:48:d8:7e:80:9b:0e:1e:
                    87:68:51:92:02:e8:8d:d1:97:9f:8c:c0:63:96:51:
                    a2:94:d1:fa:9c:53:70:94:fe:d2:2b:59:d7:ed:df:
                    83:25:cd:08:5f:bd:67:6c:ec:ea:68:57:a1:4c:97:
                    1a:f5:a1:2d:e6:b2:af:c9:55:d7:d7:4d:85:6f:54:
                    77:bd:c7:67:98:d1:22:88:11:38:b1:33:af:d3:45:
                    b6:e1:d3:aa:33:0a:7f:c7:55:f8:f3:15:16:b3:53:
                    62:da:10:ec:fa:b5:31:be:8f:ca:5f:31:6f:ec:9d:
                    dd:26:1e:b3:15:03:61:6a:c7:3a:8e:4f:ae:b8:71:
                    cd:ca:c9:d2:ea:82:ae:16:5c:86:36:18:25:ce:c6:
                    e1:4f:78:df:da:4e:a5:9c:5f:7c:8f:7a:1d:c8:fd:
                    7f:f1:17:d3:2f:76:1b:24:aa:ae:e9:2e:85:a8:49:
                    c8:28:57:f7:27:63:44:1b:ac:2b:21:af:27:33:8c:
                    65:96:85:b5:3c:52:81:cf:ff:fa:a5:ca:0c:4f:d8:
                    7f:cc:81:4f:14:b8:59:2b:cc:80:e6:4c:e2:8f:1e:
                    0d:21:df:9f:d8:7c:fe:ac:1c:5c:45:39:14:38:84:
                    cc:6b:7e:19:18:05:a8:bd:34:11:3c:60:44:b7:c7:
                    7d:c9
                Exponent: 65537 (0x10001)
        X509v3 extensions:
            X509v3 Basic Constraints: 
                CA:FALSE
            X509v3 Subject Key Identifier: 
                3C:00:31:F4:6E:A2:A1:86:5C:C3:C5:92:73:15:FC:EA:EC:1F:89:1C
            X509v3 Authority Key Identifier: 
                keyid:98:BE:C2:B5:C5:38:66:12:CB:C3:AF:E2:4B:D3:65:30:F8:18:0A:67
                DirName:/CN=Easy-RSA CA
                serial:53:48:63:49:F9:5C:EF:46:3A:81:36:DA:C2:03:9F:79:87:A1:96:08
            X509v3 Extended Key Usage: 
                TLS Web Client Authentication
            X509v3 Key Usage: 
                Digital Signature
    Signature Algorithm: sha256WithRSAEncryption
    Signature Value:
        0d:d8:78:32:6b:4a:1d:a4:3b:57:49:80:64:ec:83:11:65:45:
        b6:85:32:c1:34:42:08:c9:2f:03:1f:0a:2e:6e:0d:31:bc:f9:
        45:2a:49:f2:57:9e:a1:df:c6:5c:75:fd:1b:27:91:7a:61:51:
        5f:30:72:e3:e8:27:21:76:3a:56:80:04:ac:88:6d:a9:99:4f:
        58:63:d8:44:32:0d:b2:80:41:13:7f:fa:69:7b:e4:06:d4:81:
        d0:cd:94:54:9d:d3:3a:2b:d0:d4:ad:08:8e:dd:c9:94:d0:1d:
        f5:ec:32:17:52:64:1c:20:8e:54:ed:68:53:c6:ce:94:a1:7a:
        97:90:a1:3a:dc:49:a2:31:1d:b7:32:63:42:08:68:31:da:60:
        1a:c7:d8:1e:18:67:dc:df:47:93:a5:06:59:4b:ee:77:89:5f:
        4c:bb:d4:2a:e9:02:a5:9b:c0:10:50:c9:9b:b7:a5:f6:5d:5e:
        8e:aa:f2:e6:2e:1e:68:5d:96:56:36:c1:fc:d5:a2:4d:c6:52:
        2b:77:af:64:b9:ff:c6:26:b7:ec:33:a0:43:58:73:bb:d4:69:
        87:d5:0c:16:b0:51:3a:99:54:f8:e9:05:78:68:13:5b:7b:f6:
        88:6e:33:0a:cc:c7:34:10:25:3e:24:71:13:50:c7:b0:84:f5:
        94:da:ce:24
-----BEGIN CERTIFICATE-----
MIIDVTCCAj2gAwIBAgIRALQUuua8453kiAhbofU6Gb0wDQYJKoZIhvcNAQELBQAw
FjEUMBIGA1UEAwwLRWFzeS1SU0EgQ0EwHhcNMjUwNDI5MTMxNzMzWhcNMzUwNDI3
MTMxNzMzWjARMQ8wDQYDVQQDDAZjbGllbnQwggEiMA0GCSqGSIb3DQEBAQUAA4IB
DwAwggEKAoIBAQCjVb9IcJSHSNh+gJsOHodoUZIC6I3Rl5+MwGOWUaKU0fqcU3CU
/tIrWdft34MlzQhfvWds7OpoV6FMlxr1oS3msq/JVdfXTYVvVHe9x2eY0SKIETix
M6/TRbbh06ozCn/HVfjzFRazU2LaEOz6tTG+j8pfMW/snd0mHrMVA2FqxzqOT664
cc3KydLqgq4WXIY2GCXOxuFPeN/aTqWcX3yPeh3I/X/xF9Mvdhskqq7pLoWoScgo
V/cnY0QbrCshryczjGWWhbU8UoHP//qlygxP2H/MgU8UuFkrzIDmTOKPHg0h35/Y
fP6sHFxFORQ4hMxrfhkYBai9NBE8YES3x33JAgMBAAGjgaIwgZ8wCQYDVR0TBAIw
ADAdBgNVHQ4EFgQUPAAx9G6ioYZcw8WScxX86uwfiRwwUQYDVR0jBEowSIAUmL7C
tcU4ZhLLw6/iS9NlMPgYCmehGqQYMBYxFDASBgNVBAMMC0Vhc3ktUlNBIENBghRT
SGNJ+VzvRjqBNtrCA595h6GWCDATBgNVHSUEDDAKBggrBgEFBQcDAjALBgNVHQ8E
BAMCB4AwDQYJKoZIhvcNAQELBQADggEBAA3YeDJrSh2kO1dJgGTsgxFlRbaFMsE0
QgjJLwMfCi5uDTG8+UUqSfJXnqHfxlx1/RsnkXphUV8wcuPoJyF2OlaABKyIbamZ
T1hj2EQyDbKAQRN/+ml75AbUgdDNlFSd0zor0NStCI7dyZTQHfXsMhdSZBwgjlTt
aFPGzpShepeQoTrcSaIxHbcyY0IIaDHaYBrH2B4YZ9zfR5OlBllL7neJX0y71Crp
AqWbwBBQyZu3pfZdXo6q8uYuHmhdllY2wfzVok3GUit3r2S5/8Ymt+wzoENYc7vU
aYfVDBawUTqZVPjpBXhoE1t79ohuMwrMxzQQJT4kcRNQx7CE9ZTaziQ=
-----END CERTIFICATE-----
